; Function Attrs: mustprogress uwtable
define void @_ZNK6casadi6SXElem3depEx(ptr dead_on_unwind noalias writable sret(%"class.casadi::SXElem") align 8 %0, ptr nocapture noundef nonnull readonly align 8 dereferenceable(8) %1, i64 noundef %2) local_unnamed_addr #6 align 2 personality ptr @__gxx_personality_v0 {
  %4 = alloca %"class.std::__cxx11::basic_string", align 8
  %5 = alloca %"class.std::__cxx11::basic_string", align 8
  %6 = alloca %"class.std::__cxx11::basic_string", align 8
  %7 = alloca %"class.std::__cxx11::basic_string", align 8
  %8 = alloca %"class.std::allocator.22", align 1
  %9 = alloca %"class.std::__cxx11::basic_string", align 8
  %10 = alloca %"class.std::__cxx11::basic_string", align 8
  %11 = alloca %"class.std::__cxx11::basic_string", align 8
  %12 = alloca %"class.std::allocator.22", align 1
  %13 = alloca %"class.std::vector", align 8
  %or.cond = icmp ult i64 %2, 2
  br i1 %or.cond, label %48, label %14

14:                                               ; preds = %3
  %15 = tail call ptr @__cxa_allocate_exception(i64 40) #25
  call void @_ZNSaIcEC1Ev(ptr noundef nonnull align 1 dereferenceable(1) %8) #25
  invoke void @_ZNSt7__cxx1112basic_stringIcSt11char_traitsIcESaIcEEC2IS3_EEPKcRKS3_(ptr noundef nonnull align 8 dereferenceable(32) %7, ptr noundef nonnull @.str.11, ptr noundef nonnull align 1 dereferenceable(1) %8)
          to label %16 unwind label %.thread

16:                                               ; preds = %14
  invoke void @_ZN6casadi9trim_pathERKNSt7__cxx1112basic_stringIcSt11char_traitsIcESaIcEEE(ptr dead_on_unwind nonnull writable sret(%"class.std::__cxx11::basic_string") align 8 %6, ptr noundef nonnull align 8 dereferenceable(32) %7)
          to label %17 unwind label %27

17:                                               ; preds = %16
  %18 = invoke noundef nonnull align 8 dereferenceable(32) ptr @_ZNSt7__cxx1112basic_stringIcSt11char_traitsIcESaIcEE6appendEPKc(ptr noundef nonnull align 8 dereferenceable(32) %6, ptr noundef nonnull @.str.3)
          to label %19 unwind label %29

19:                                               ; preds = %17
  call void @_ZNSt7__cxx1112basic_stringIcSt11char_traitsIcESaIcEEC1EOS4_(ptr noundef nonnull align 8 dereferenceable(32) %5, ptr noundef nonnull align 8 dereferenceable(32) %18) #25
  call void @_ZNSaIcEC1Ev(ptr noundef nonnull align 1 dereferenceable(1) %12) #25
  invoke void @_ZNSt7__cxx1112basic_stringIcSt11char_traitsIcESaIcEEC2IS3_EEPKcRKS3_(ptr noundef nonnull align 8 dereferenceable(32) %11, ptr noundef nonnull @.str.5, ptr noundef nonnull align 1 dereferenceable(1) %12)
          to label %20 unwind label %31

20:                                               ; preds = %19
  %21 = invoke noundef nonnull align 8 dereferenceable(32) ptr @_ZNSt7__cxx1112basic_stringIcSt11char_traitsIcESaIcEE6insertEmPKc(ptr noundef nonnull align 8 dereferenceable(32) %11, i64 noundef 0, ptr noundef nonnull @.str.12)
          to label %22 unwind label %33

22:                                               ; preds = %20
  call void @_ZNSt7__cxx1112basic_stringIcSt11char_traitsIcESaIcEEC1EOS4_(ptr noundef nonnull align 8 dereferenceable(32) %10, ptr noundef nonnull align 8 dereferenceable(32) %21) #25
  call void @llvm.memset.p0.i64(ptr noundef nonnull align 8 dereferenceable(24) %13, i8 0, i64 24, i1 false), !alias.scope !16
  invoke void @_ZN6casadi6fmtstrERKNSt7__cxx1112basic_stringIcSt11char_traitsIcESaIcEEERKSt6vectorIS5_SaIS5_EE(ptr dead_on_unwind nonnull writable sret(%"class.std::__cxx11::basic_string") align 8 %9, ptr noundef nonnull align 8 dereferenceable(32) %10, ptr noundef nonnull align 8 dereferenceable(24) %13)
          to label %23 unwind label %35

23:                                               ; preds = %22
  invoke void @_ZStplIcSt11char_traitsIcESaIcEENSt7__cxx1112basic_stringIT_T0_T1_EEOS8_S9_(ptr dead_on_unwind nonnull writable sret(%"class.std::__cxx11::basic_string") align 8 %4, ptr noundef nonnull align 8 dereferenceable(32) %5, ptr noundef nonnull align 8 dereferenceable(32) %9)
          to label %24 unwind label %37

24:                                               ; preds = %23
  invoke void @_ZN6casadi15CasadiExceptionC2ERKNSt7__cxx1112basic_stringIcSt11char_traitsIcESaIcEEE(ptr noundef nonnull align 8 dereferenceable(40) %15, ptr noundef nonnull align 8 dereferenceable(32) %4)
          to label %25 unwind label %39

25:                                               ; preds = %24
  invoke void @__cxa_throw(ptr nonnull %15, ptr nonnull @_ZTIN6casadi15CasadiExceptionE, ptr nonnull @_ZN6casadi15CasadiExceptionD2Ev) #26
          to label %55 unwind label %39

.thread:                                          ; preds = %14
  %26 = landingpad { ptr, i32 }
          cleanup
  call void @_ZNSaIcED1Ev(ptr noundef nonnull align 1 dereferenceable(1) %8) #25
  br label %47

27:                                               ; preds = %16
  %28 = landingpad { ptr, i32 }
          cleanup
  br label %46

29:                                               ; preds = %17
  %30 = landingpad { ptr, i32 }
          cleanup
  br label %45

31:                                               ; preds = %19
  %32 = landingpad { ptr, i32 }
          cleanup
  br label %44

33:                                               ; preds = %20
  %34 = landingpad { ptr, i32 }
          cleanup
  br label %43

35:                                               ; preds = %22
  %36 = landingpad { ptr, i32 }
          cleanup
  br label %42

37:                                               ; preds = %23
  %38 = landingpad { ptr, i32 }
          cleanup
  br label %41

39:                                               ; preds = %25, %24
  %.0 = phi i1 [ false, %25 ], [ true, %24 ]
  %40 = landingpad { ptr, i32 }
          cleanup
  call void @_ZNSt7__cxx1112basic_stringIcSt11char_traitsIcESaIcEED1Ev(ptr noundef nonnull align 8 dereferenceable(32) %4) #25
  br label %41

41:                                               ; preds = %39, %37
  %.pn = phi { ptr, i32 } [ %40, %39 ], [ %38, %37 ]
  %.1 = phi i1 [ %.0, %39 ], [ true, %37 ]
  call void @_ZNSt7__cxx1112basic_stringIcSt11char_traitsIcESaIcEED1Ev(ptr noundef nonnull align 8 dereferenceable(32) %9) #25
  br label %42

42:                                               ; preds = %41, %35
  %.pn.pn = phi { ptr, i32 } [ %.pn, %41 ], [ %36, %35 ]
  %.2 = phi i1 [ %.1, %41 ], [ true, %35 ]
  call void @_ZNSt6vectorINSt7__cxx1112basic_stringIcSt11char_traitsIcESaIcEEESaIS5_EED2Ev(ptr noundef nonnull align 8 dereferenceable(24) %13) #25
  call void @_ZNSt7__cxx1112basic_stringIcSt11char_traitsIcESaIcEED1Ev(ptr noundef nonnull align 8 dereferenceable(32) %10) #25
  br label %43

43:                                               ; preds = %42, %33
  %.pn.pn.pn = phi { ptr, i32 } [ %.pn.pn, %42 ], [ %34, %33 ]
  %.3 = phi i1 [ %.2, %42 ], [ true, %33 ]
  call void @_ZNSt7__cxx1112basic_stringIcSt11char_traitsIcESaIcEED1Ev(ptr noundef nonnull align 8 dereferenceable(32) %11) #25
  br label %44

44:                                               ; preds = %43, %31
  %.pn.pn.pn.pn = phi { ptr, i32 } [ %.pn.pn.pn, %43 ], [ %32, %31 ]
  %.4 = phi i1 [ %.3, %43 ], [ true, %31 ]
  call void @_ZNSaIcED1Ev(ptr noundef nonnull align 1 dereferenceable(1) %12) #25
  call void @_ZNSt7__cxx1112basic_stringIcSt11char_traitsIcESaIcEED1Ev(ptr noundef nonnull align 8 dereferenceable(32) %5) #25
  br label %45

45:                                               ; preds = %44, %29
  %.pn.pn.pn.pn.pn = phi { ptr, i32 } [ %.pn.pn.pn.pn, %44 ], [ %30, %29 ]
  %.5 = phi i1 [ %.4, %44 ], [ true, %29 ]
  call void @_ZNSt7__cxx1112basic_stringIcSt11char_traitsIcESaIcEED1Ev(ptr noundef nonnull align 8 dereferenceable(32) %6) #25
  br label %46

46:                                               ; preds = %27, %45
  %.pn.pn.pn.pn.pn.pn = phi { ptr, i32 } [ %.pn.pn.pn.pn.pn, %45 ], [ %28, %27 ]
  %.6 = phi i1 [ %.5, %45 ], [ true, %27 ]
  call void @_ZNSt7__cxx1112basic_stringIcSt11char_traitsIcESaIcEED1Ev(ptr noundef nonnull align 8 dereferenceable(32) %7) #25
  call void @_ZNSaIcED1Ev(ptr noundef nonnull align 1 dereferenceable(1) %8) #25
  br i1 %.6, label %47, label %54

47:                                               ; preds = %.thread, %46
  %.pn.pn.pn.pn.pn.pn.pn31 = phi { ptr, i32 } [ %26, %.thread ], [ %.pn.pn.pn.pn.pn.pn, %46 ]
  call void @__cxa_free_exception(ptr %15) #25
  br label %54

48:                                               ; preds = %3
  %49 = load ptr, ptr %1, align 8
  %50 = load ptr, ptr %49, align 8
  %51 = getelementptr inbounds i8, ptr %50, i64 168
  %52 = load ptr, ptr %51, align 8
  %53 = tail call noundef nonnull align 8 dereferenceable(8) ptr %52(ptr noundef nonnull align 8 dereferenceable(16) %49, i64 noundef %2)
  tail call void @_ZN6casadi6SXElemC1ERKS0_(ptr noundef nonnull align 8 dereferenceable(8) %0, ptr noundef nonnull align 8 dereferenceable(8) %53)
  ret void

54:                                               ; preds = %46, %47
  %.pn.pn.pn.pn.pn.pn.pn30 = phi { ptr, i32 } [ %.pn.pn.pn.pn.pn.pn, %46 ], [ %.pn.pn.pn.pn.pn.pn.pn31, %47 ]
  resume { ptr, i32 } %.pn.pn.pn.pn.pn.pn.pn30

55:                                               ; preds = %25
  unreachable
}